; Function Attrs: nounwind uwtable
define dso_local void @linenoiseEditMoveRight(ptr noundef captures(none) %0) local_unnamed_addr #10 {
  %2 = getelementptr inbounds nuw i8, ptr %0, i64 48
  %3 = load i64, ptr %2, align 8, !tbaa !26
  %4 = getelementptr inbounds nuw i8, ptr %0, i64 64
  %5 = load i64, ptr %4, align 8, !tbaa !17
  %.not = icmp eq i64 %3, %5
  br i1 %.not, label %8, label %6

6:                                                ; preds = %1
  %7 = add i64 %3, 1
  store i64 %7, ptr %2, align 8, !tbaa !26
  tail call fastcc void @refreshLine(ptr noundef nonnull %0)
  br label %8

8:                                                ; preds = %6, %1
  ret void
}